target datalayout = "e-m:e-p270:32:32-p271:32:32-p272:64:64-i64:64-i128:128-f80:128-n8:16:32:64-S128"
target triple = "x86_64-pc-linux-gnu"

%class.Type.base = type <{ ptr, ptr, i32 }>
%class.TypePtr = type <{ %class.Type.base, [4 x i8], ptr, i32, i32, i32, [4 x i8] }>

; Function Attrs: mustprogress nounwind uwtable
define hidden noundef i32 @_ZNK7TypePtr11xadd_offsetEl(ptr noundef nonnull align 8 dereferenceable(44) %0, i64 noundef %1) #1 align 2 {
  %3 = alloca i32, align 4
  %4 = alloca ptr, align 8
  %5 = alloca i64, align 8
  store ptr %0, ptr %4, align 8
  store i64 %1, ptr %5, align 8
  %6 = load ptr, ptr %4, align 8
  %7 = getelementptr inbounds %class.TypePtr, ptr %6, i32 0, i32 4
  %8 = load i32, ptr %7, align 4
  %9 = icmp eq i32 %8, -2000000000
  br i1 %9, label %13, label %10

10:                                               ; preds = %2
  %11 = load i64, ptr %5, align 8
  %12 = icmp eq i64 %11, -2000000000
  br i1 %12, label %13, label %14

13:                                               ; preds = %10, %2
  store i32 -2000000000, ptr %3, align 4
  br label %40

14:                                               ; preds = %10
  %15 = getelementptr inbounds %class.TypePtr, ptr %6, i32 0, i32 4
  %16 = load i32, ptr %15, align 4
  %17 = icmp eq i32 %16, -2000000001
  br i1 %17, label %21, label %18

18:                                               ; preds = %14
  %19 = load i64, ptr %5, align 8
  %20 = icmp eq i64 %19, -2000000001
  br i1 %20, label %21, label %22

21:                                               ; preds = %18, %14
  store i32 -2000000001, ptr %3, align 4
  br label %40

22:                                               ; preds = %18
  %23 = getelementptr inbounds %class.TypePtr, ptr %6, i32 0, i32 4
  %24 = load i32, ptr %23, align 4
  %25 = sext i32 %24 to i64
  %26 = load i64, ptr %5, align 8
  %27 = add nsw i64 %26, %25
  store i64 %27, ptr %5, align 8
  %28 = load i64, ptr %5, align 8
  %29 = load i64, ptr %5, align 8
  %30 = trunc i64 %29 to i32
  %31 = sext i32 %30 to i64
  %32 = icmp ne i64 %28, %31
  br i1 %32, label %36, label %33

33:                                               ; preds = %22
  %34 = load i64, ptr %5, align 8
  %35 = icmp eq i64 %34, -2000000000
  br i1 %35, label %36, label %37

36:                                               ; preds = %33, %22
  store i32 -2000000001, ptr %3, align 4
  br label %40

37:                                               ; preds = %33
  %38 = load i64, ptr %5, align 8
  %39 = trunc i64 %38 to i32
  store i32 %39, ptr %3, align 4
  br label %40

40:                                               ; preds = %37, %36, %21, %13
  %41 = load i32, ptr %3, align 4
  ret i32 %41
}