; Function Attrs: mustprogress nofree norecurse nosync nounwind willreturn memory(argmem: read) uwtable
define hidden noundef i32 @_ZNK7TypePtr11xadd_offsetEl(ptr nocapture noundef nonnull readonly align 8 dereferenceable(44) %0, i64 noundef %1) local_unnamed_addr #6 align 2 {
  %3 = getelementptr inbounds i8, ptr %0, i64 36
  %4 = load i32, ptr %3, align 4
  %5 = icmp eq i32 %4, -2000000000
  %6 = icmp eq i64 %1, -2000000000
  %or.cond = or i1 %6, %5
  br i1 %or.cond, label %17, label %7

7:                                                ; preds = %2
  %8 = icmp eq i32 %4, -2000000001
  %9 = icmp eq i64 %1, -2000000001
  %or.cond3 = or i1 %9, %8
  br i1 %or.cond3, label %17, label %10

10:                                               ; preds = %7
  %11 = sext i32 %4 to i64
  %12 = add nsw i64 %11, %1
  %13 = add i64 %12, -2147483648
  %14 = icmp ult i64 %13, -4294967296
  %15 = icmp eq i64 %12, -2000000000
  %or.cond5 = or i1 %15, %14
  %16 = trunc i64 %12 to i32
  %spec.select = select i1 %or.cond5, i32 -2000000001, i32 %16
  br label %17

17:                                               ; preds = %10, %7, %2
  %.0 = phi i32 [ -2000000000, %2 ], [ -2000000001, %7 ], [ %spec.select, %10 ]
  ret i32 %.0
}